target datalayout = "e-m:e-p270:32:32-p271:32:32-p272:64:64-i64:64-i128:128-f80:128-n8:16:32:64-S128"
target triple = "x86_64-pc-linux-gnu"

%struct.Bbr_ImageTree2_t_ = type { ptr, ptr, ptr, ptr }

; Function Attrs: nounwind uwtable
define ptr @Bbr_bddImageCompute2(ptr noundef %0, ptr noundef %1) #0 {
  %3 = alloca ptr, align 8
  %4 = alloca ptr, align 8
  store ptr %0, ptr %3, align 8, !tbaa !101
  store ptr %1, ptr %4, align 8, !tbaa !8
  %5 = load ptr, ptr %3, align 8, !tbaa !101
  %6 = getelementptr inbounds nuw %struct.Bbr_ImageTree2_t_, ptr %5, i32 0, i32 3
  %7 = load ptr, ptr %6, align 8, !tbaa !105
  %8 = icmp ne ptr %7, null
  br i1 %8, label %9, label %16

9:                                                ; preds = %2
  %10 = load ptr, ptr %3, align 8, !tbaa !101
  %11 = getelementptr inbounds nuw %struct.Bbr_ImageTree2_t_, ptr %10, i32 0, i32 0
  %12 = load ptr, ptr %11, align 8, !tbaa !103
  %13 = load ptr, ptr %3, align 8, !tbaa !101
  %14 = getelementptr inbounds nuw %struct.Bbr_ImageTree2_t_, ptr %13, i32 0, i32 3
  %15 = load ptr, ptr %14, align 8, !tbaa !105
  call void @Cudd_RecursiveDeref(ptr noundef %12, ptr noundef %15)
  br label %16

16:                                               ; preds = %9, %2
  %17 = load ptr, ptr %3, align 8, !tbaa !101
  %18 = getelementptr inbounds nuw %struct.Bbr_ImageTree2_t_, ptr %17, i32 0, i32 0
  %19 = load ptr, ptr %18, align 8, !tbaa !103
  %20 = load ptr, ptr %3, align 8, !tbaa !101
  %21 = getelementptr inbounds nuw %struct.Bbr_ImageTree2_t_, ptr %20, i32 0, i32 1
  %22 = load ptr, ptr %21, align 8, !tbaa !107
  %23 = load ptr, ptr %4, align 8, !tbaa !8
  %24 = load ptr, ptr %3, align 8, !tbaa !101
  %25 = getelementptr inbounds nuw %struct.Bbr_ImageTree2_t_, ptr %24, i32 0, i32 2
  %26 = load ptr, ptr %25, align 8, !tbaa !106
  %27 = call ptr @Cudd_bddAndAbstract(ptr noundef %19, ptr noundef %22, ptr noundef %23, ptr noundef %26)
  %28 = load ptr, ptr %3, align 8, !tbaa !101
  %29 = getelementptr inbounds nuw %struct.Bbr_ImageTree2_t_, ptr %28, i32 0, i32 3
  store ptr %27, ptr %29, align 8, !tbaa !105
  %30 = load ptr, ptr %3, align 8, !tbaa !101
  %31 = getelementptr inbounds nuw %struct.Bbr_ImageTree2_t_, ptr %30, i32 0, i32 3
  %32 = load ptr, ptr %31, align 8, !tbaa !105
  call void @Cudd_Ref(ptr noundef %32)
  %33 = load ptr, ptr %3, align 8, !tbaa !101
  %34 = getelementptr inbounds nuw %struct.Bbr_ImageTree2_t_, ptr %33, i32 0, i32 3
  %35 = load ptr, ptr %34, align 8, !tbaa !105
  ret ptr %35
}