; Function Attrs: nounwind uwtable
define ptr @Bbr_bddImageCompute2(ptr noundef captures(none) %0, ptr noundef %1) local_unnamed_addr #0 {
  %3 = getelementptr inbounds nuw i8, ptr %0, i64 24
  %4 = load ptr, ptr %3, align 8, !tbaa !94
  %.not = icmp eq ptr %4, null
  br i1 %.not, label %7, label %5

5:                                                ; preds = %2
  %6 = load ptr, ptr %0, align 8, !tbaa !92
  tail call void @Cudd_RecursiveDeref(ptr noundef %6, ptr noundef nonnull %4) #11
  br label %7

7:                                                ; preds = %5, %2
  %8 = load ptr, ptr %0, align 8, !tbaa !92
  %9 = getelementptr inbounds nuw i8, ptr %0, i64 8
  %10 = load ptr, ptr %9, align 8, !tbaa !96
  %11 = getelementptr inbounds nuw i8, ptr %0, i64 16
  %12 = load ptr, ptr %11, align 8, !tbaa !95
  %13 = tail call ptr @Cudd_bddAndAbstract(ptr noundef %8, ptr noundef %10, ptr noundef %1, ptr noundef %12) #11
  store ptr %13, ptr %3, align 8, !tbaa !94
  tail call void @Cudd_Ref(ptr noundef %13) #11
  %14 = load ptr, ptr %3, align 8, !tbaa !94
  ret ptr %14
}